target datalayout = "e-m:e-p270:32:32-p271:32:32-p272:64:64-i64:64-i128:128-f80:128-n8:16:32:64-S128"
target triple = "x86_64-pc-linux-gnu"

%struct.AVRational = type { i32, i32 }
%struct.SyncQueue = type { i32, ptr, i32, i32, i32, i64, ptr, i32, i32, i64 }
%struct.SyncQueueStream = type { ptr, %struct.AVRational, i64, i64, i32, i32, i64, i64, i64, i32 }

@.str = private unnamed_addr constant [30 x i8] c"Assertion %s failed at %s:%d\0A\00", align 1
@.str.1 = private unnamed_addr constant [28 x i8] c"stream_idx < sq->nb_streams\00", align 1
@.str.2 = private unnamed_addr constant [21 x i8] c"fftools/sync_queue.c\00", align 1
@.str.7 = private unnamed_addr constant [30 x i8] c"sq->type == SYNC_QUEUE_FRAMES\00", align 1

; Function Attrs: nounwind uwtable
define void @sq_frame_samples(ptr noundef %0, i32 noundef %1, i32 noundef %2) #0 {
  %4 = alloca ptr, align 8
  %5 = alloca i32, align 4
  %6 = alloca i32, align 4
  %7 = alloca ptr, align 8
  store ptr %0, ptr %4, align 8, !tbaa !4
  store i32 %1, ptr %5, align 4, !tbaa !9
  store i32 %2, ptr %6, align 4, !tbaa !9
  call void @llvm.lifetime.start.p0(i64 8, ptr %7) #8
  br label %8

8:                                                ; preds = %3
  %9 = load ptr, ptr %4, align 8, !tbaa !4
  %10 = getelementptr inbounds nuw %struct.SyncQueue, ptr %9, i32 0, i32 0
  %11 = load i32, ptr %10, align 8, !tbaa !37
  %12 = icmp eq i32 %11, 1
  br i1 %12, label %14, label %13

13:                                               ; preds = %8
  call void (ptr, i32, ptr, ...) @av_log(ptr noundef null, i32 noundef 0, ptr noundef @.str, ptr noundef @.str.7, ptr noundef @.str.2, i32 noundef 645)
  call void @abort() #9
  unreachable

14:                                               ; preds = %8
  br label %15

15:                                               ; preds = %14
  br label %16

16:                                               ; preds = %15
  br label %17

17:                                               ; preds = %16
  %18 = load i32, ptr %5, align 4, !tbaa !9
  %19 = load ptr, ptr %4, align 8, !tbaa !4
  %20 = getelementptr inbounds nuw %struct.SyncQueue, ptr %19, i32 0, i32 7
  %21 = load i32, ptr %20, align 8, !tbaa !11
  %22 = icmp ult i32 %18, %21
  br i1 %22, label %24, label %23

23:                                               ; preds = %17
  call void (ptr, i32, ptr, ...) @av_log(ptr noundef null, i32 noundef 0, ptr noundef @.str, ptr noundef @.str.1, ptr noundef @.str.2, i32 noundef 646)
  call void @abort() #9
  unreachable

24:                                               ; preds = %17
  br label %25

25:                                               ; preds = %24
  br label %26

26:                                               ; preds = %25
  %27 = load ptr, ptr %4, align 8, !tbaa !4
  %28 = getelementptr inbounds nuw %struct.SyncQueue, ptr %27, i32 0, i32 6
  %29 = load ptr, ptr %28, align 8, !tbaa !15
  %30 = load i32, ptr %5, align 4, !tbaa !9
  %31 = zext i32 %30 to i64
  %32 = getelementptr inbounds nuw %struct.SyncQueueStream, ptr %29, i64 %31
  store ptr %32, ptr %7, align 8, !tbaa !16
  %33 = load i32, ptr %6, align 4, !tbaa !9
  %34 = load ptr, ptr %7, align 8, !tbaa !16
  %35 = getelementptr inbounds nuw %struct.SyncQueueStream, ptr %34, i32 0, i32 9
  store i32 %33, ptr %35, align 8, !tbaa !40
  %36 = call i64 @av_cpu_max_align()
  %37 = sub i64 %36, 1
  %38 = load ptr, ptr %4, align 8, !tbaa !4
  %39 = getelementptr inbounds nuw %struct.SyncQueue, ptr %38, i32 0, i32 9
  store i64 %37, ptr %39, align 8, !tbaa !70
  call void @llvm.lifetime.end.p0(i64 8, ptr %7) #8
  ret void
}