; Function Attrs: nounwind uwtable
define void @sq_frame_samples(ptr noundef captures(none) %0, i32 noundef %1, i32 noundef %2) local_unnamed_addr #0 {
  %4 = load i32, ptr %0, align 8, !tbaa !18
  %5 = icmp eq i32 %4, 1
  br i1 %5, label %7, label %6

6:                                                ; preds = %3
  tail call void (ptr, i32, ptr, ...) @av_log(ptr noundef null, i32 noundef 0, ptr noundef nonnull @.str, ptr noundef nonnull @.str.7, ptr noundef nonnull @.str.2, i32 noundef 645) #7
  tail call void @abort() #8
  unreachable

7:                                                ; preds = %3
  %8 = getelementptr inbounds nuw i8, ptr %0, i64 48
  %9 = load i32, ptr %8, align 8, !tbaa !4
  %10 = icmp ult i32 %1, %9
  br i1 %10, label %12, label %11

11:                                               ; preds = %7
  tail call void (ptr, i32, ptr, ...) @av_log(ptr noundef null, i32 noundef 0, ptr noundef nonnull @.str, ptr noundef nonnull @.str.1, ptr noundef nonnull @.str.2, i32 noundef 646) #7
  tail call void @abort() #8
  unreachable

12:                                               ; preds = %7
  %13 = getelementptr inbounds nuw i8, ptr %0, i64 40
  %14 = load ptr, ptr %13, align 8, !tbaa !12
  %15 = zext i32 %1 to i64
  %16 = getelementptr inbounds nuw %struct.SyncQueueStream, ptr %14, i64 %15, i32 9
  store i32 %2, ptr %16, align 8, !tbaa !38
  %17 = tail call i64 @av_cpu_max_align() #7
  %18 = add i64 %17, -1
  %19 = getelementptr inbounds nuw i8, ptr %0, i64 56
  store i64 %18, ptr %19, align 8, !tbaa !56
  ret void
}